target datalayout = "e-m:e-p270:32:32-p271:32:32-p272:64:64-i64:64-i128:128-f80:128-n8:16:32:64-S128"
target triple = "x86_64-pc-linux-gnu"

@.str = private unnamed_addr constant [44 x i8] c"../openssl/providers/common/securitycheck.c\00", align 1
@__func__.ossl_rsa_key_op_get_protect = private unnamed_addr constant [28 x i8] c"ossl_rsa_key_op_get_protect\00", align 1
@.str.1 = private unnamed_addr constant [14 x i8] c"operation: %d\00", align 1
@.str.2 = private unnamed_addr constant [22 x i8] c"invalid operation: %d\00", align 1

; Function Attrs: nounwind uwtable
define i32 @ossl_rsa_key_op_get_protect(ptr noundef %0, i32 noundef %1, ptr noundef %2) #0 {
  %4 = alloca i32, align 4
  %5 = alloca ptr, align 8
  %6 = alloca i32, align 4
  %7 = alloca ptr, align 8
  %8 = alloca i32, align 4
  %9 = alloca i32, align 4
  store ptr %0, ptr %5, align 8, !tbaa !3
  store i32 %1, ptr %6, align 4, !tbaa !8
  store ptr %2, ptr %7, align 8, !tbaa !10
  call void @llvm.lifetime.start.p0(i64 4, ptr %8) #3
  store i32 0, ptr %8, align 4, !tbaa !8
  %10 = load i32, ptr %6, align 4, !tbaa !8
  switch i32 %10, label %21 [
    i32 16, label %11
    i32 16384, label %11
    i32 32, label %12
    i32 32768, label %12
    i32 4096, label %13
    i32 512, label %13
    i32 64, label %14
    i32 8192, label %14
    i32 1024, label %14
  ]

11:                                               ; preds = %3, %3
  store i32 1, ptr %8, align 4, !tbaa !8
  br label %12

12:                                               ; preds = %3, %3, %11
  br label %23

13:                                               ; preds = %3, %3
  store i32 1, ptr %8, align 4, !tbaa !8
  br label %14

14:                                               ; preds = %3, %3, %3, %13
  %15 = load ptr, ptr %5, align 8, !tbaa !3
  %16 = call i32 @RSA_test_flags(ptr noundef %15, i32 noundef 61440)
  %17 = icmp eq i32 %16, 4096
  br i1 %17, label %18, label %20

18:                                               ; preds = %14
  call void @ERR_new()
  call void @ERR_set_debug(ptr noundef @.str, i32 noundef 46, ptr noundef @__func__.ossl_rsa_key_op_get_protect)
  %19 = load i32, ptr %6, align 4, !tbaa !8
  call void (i32, i32, ptr, ...) @ERR_set_error(i32 noundef 57, i32 noundef 178, ptr noundef @.str.1, i32 noundef %19)
  store i32 0, ptr %4, align 4
  store i32 1, ptr %9, align 4
  br label %26

20:                                               ; preds = %14
  br label %23

21:                                               ; preds = %3
  call void @ERR_new()
  call void @ERR_set_debug(ptr noundef @.str, i32 noundef 53, ptr noundef @__func__.ossl_rsa_key_op_get_protect)
  %22 = load i32, ptr %6, align 4, !tbaa !8
  call void (i32, i32, ptr, ...) @ERR_set_error(i32 noundef 57, i32 noundef 786691, ptr noundef @.str.2, i32 noundef %22)
  store i32 0, ptr %4, align 4
  store i32 1, ptr %9, align 4
  br label %26

23:                                               ; preds = %20, %12
  %24 = load i32, ptr %8, align 4, !tbaa !8
  %25 = load ptr, ptr %7, align 8, !tbaa !10
  store i32 %24, ptr %25, align 4, !tbaa !8
  store i32 1, ptr %4, align 4
  store i32 1, ptr %9, align 4
  br label %26

26:                                               ; preds = %23, %21, %18
  call void @llvm.lifetime.end.p0(i64 4, ptr %8) #3
  %27 = load i32, ptr %4, align 4
  ret i32 %27
}