; Function Attrs: nounwind uwtable
define range(i32 0, 2) i32 @ossl_rsa_key_op_get_protect(ptr noundef %0, i32 noundef %1, ptr noundef writeonly captures(none) %2) local_unnamed_addr #0 {
  switch i32 %1, label %10 [
    i32 16, label %4
    i32 16384, label %4
    i32 32, label %11
    i32 32768, label %11
    i32 4096, label %5
    i32 512, label %5
    i32 64, label %6
    i32 8192, label %6
    i32 1024, label %6
  ]

4:                                                ; preds = %3, %3
  br label %11

5:                                                ; preds = %3, %3
  br label %6

6:                                                ; preds = %5, %3, %3, %3
  %.0 = phi i32 [ 0, %3 ], [ 0, %3 ], [ 0, %3 ], [ 1, %5 ]
  %7 = tail call i32 @RSA_test_flags(ptr noundef %0, i32 noundef 61440) #3
  %8 = icmp eq i32 %7, 4096
  br i1 %8, label %9, label %11

9:                                                ; preds = %6
  tail call void @ERR_new() #3
  tail call void @ERR_set_debug(ptr noundef nonnull @.str, i32 noundef 46, ptr noundef nonnull @__func__.ossl_rsa_key_op_get_protect) #3
  tail call void (i32, i32, ptr, ...) @ERR_set_error(i32 noundef 57, i32 noundef 178, ptr noundef nonnull @.str.1, i32 noundef %1) #3
  br label %12

10:                                               ; preds = %3
  tail call void @ERR_new() #3
  tail call void @ERR_set_debug(ptr noundef nonnull @.str, i32 noundef 53, ptr noundef nonnull @__func__.ossl_rsa_key_op_get_protect) #3
  tail call void (i32, i32, ptr, ...) @ERR_set_error(i32 noundef 57, i32 noundef 786691, ptr noundef nonnull @.str.2, i32 noundef %1) #3
  br label %12

11:                                               ; preds = %6, %3, %3, %4
  %.1 = phi i32 [ %.0, %6 ], [ 0, %3 ], [ 0, %3 ], [ 1, %4 ]
  store i32 %.1, ptr %2, align 4, !tbaa !3
  br label %12

12:                                               ; preds = %11, %10, %9
  %.06 = phi i32 [ 0, %10 ], [ 0, %9 ], [ 1, %11 ]
  ret i32 %.06
}